; ModuleID = '9/1451.c'
source_filename = "9/1451.c"
target datalayout = "e-m:e-p270:32:32-p271:32:32-p272:64:64-i64:64-f80:128-n8:16:32:64-S128"
target triple = "x86_64-pc-linux-gnu"

%struct.ren = type { [100 x i8], i32 }

@.str = private unnamed_addr constant [3 x i8] c"%d\00", align 1
@.str.1 = private unnamed_addr constant [5 x i8] c"%s%d\00", align 1
@.str.2 = private unnamed_addr constant [4 x i8] c"%s\0A\00", align 1

; Function Attrs: noinline nounwind uwtable
define dso_local i32 @main() #0 {
  %1 = alloca i32, align 4
  %2 = alloca i32, align 4
  %3 = alloca i32, align 4
  %4 = alloca i32, align 4
  %5 = alloca [100 x %struct.ren], align 16
  %6 = alloca [100 x %struct.ren], align 16
  %7 = alloca %struct.ren, align 4
  store i32 0, i32* %1, align 4
  %8 = call i32 (i8*, ...) @__isoc99_scanf(i8* getelementptr inbounds ([3 x i8], [3 x i8]* @.str, i64 0, i64 0), i32* %2)
  store i32 0, i32* %3, align 4
  br label %9

9:                                                ; preds = %32, %0
  %10 = load i32, i32* %3, align 4
  %11 = load i32, i32* %2, align 4
  %12 = icmp slt i32 %10, %11
  br i1 %12, label %13, label %35

13:                                               ; preds = %9
  %14 = load i32, i32* %3, align 4
  %15 = sext i32 %14 to i64
  %16 = getelementptr inbounds [100 x %struct.ren], [100 x %struct.ren]* %5, i64 0, i64 %15
  %17 = getelementptr inbounds %struct.ren, %struct.ren* %16, i32 0, i32 0
  %18 = getelementptr inbounds [100 x i8], [100 x i8]* %17, i64 0, i64 0
  %19 = load i32, i32* %3, align 4
  %20 = sext i32 %19 to i64
  %21 = getelementptr inbounds [100 x %struct.ren], [100 x %struct.ren]* %5, i64 0, i64 %20
  %22 = getelementptr inbounds %struct.ren, %struct.ren* %21, i32 0, i32 1
  %23 = call i32 (i8*, ...) @__isoc99_scanf(i8* getelementptr inbounds ([5 x i8], [5 x i8]* @.str.1, i64 0, i64 0), i8* %18, i32* %22)
  %24 = load i32, i32* %3, align 4
  %25 = sext i32 %24 to i64
  %26 = getelementptr inbounds [100 x %struct.ren], [100 x %struct.ren]* %6, i64 0, i64 %25
  %27 = load i32, i32* %3, align 4
  %28 = sext i32 %27 to i64
  %29 = getelementptr inbounds [100 x %struct.ren], [100 x %struct.ren]* %5, i64 0, i64 %28
  %30 = bitcast %struct.ren* %26 to i8*
  %31 = bitcast %struct.ren* %29 to i8*
  call void @llvm.memcpy.p0i8.p0i8.i64(i8* align 8 %30, i8* align 8 %31, i64 104, i1 false)
  br label %32

32:                                               ; preds = %13
  %33 = load i32, i32* %3, align 4
  %34 = add nsw i32 %33, 1
  store i32 %34, i32* %3, align 4
  br label %9

35:                                               ; preds = %9
  %36 = load i32, i32* %2, align 4
  %37 = sub nsw i32 %36, 1
  store i32 %37, i32* %3, align 4
  br label %38

38:                                               ; preds = %85, %35
  %39 = load i32, i32* %3, align 4
  %40 = icmp sgt i32 %39, 0
  br i1 %40, label %41, label %88

41:                                               ; preds = %38
  store i32 0, i32* %4, align 4
  br label %42

42:                                               ; preds = %81, %41
  %43 = load i32, i32* %4, align 4
  %44 = load i32, i32* %3, align 4
  %45 = icmp slt i32 %43, %44
  br i1 %45, label %46, label %84

46:                                               ; preds = %42
  %47 = load i32, i32* %4, align 4
  %48 = sext i32 %47 to i64
  %49 = getelementptr inbounds [100 x %struct.ren], [100 x %struct.ren]* %6, i64 0, i64 %48
  %50 = getelementptr inbounds %struct.ren, %struct.ren* %49, i32 0, i32 1
  %51 = load i32, i32* %50, align 4
  %52 = load i32, i32* %4, align 4
  %53 = add nsw i32 %52, 1
  %54 = sext i32 %53 to i64
  %55 = getelementptr inbounds [100 x %struct.ren], [100 x %struct.ren]* %6, i64 0, i64 %54
  %56 = getelementptr inbounds %struct.ren, %struct.ren* %55, i32 0, i32 1
  %57 = load i32, i32* %56, align 4
  %58 = icmp slt i32 %51, %57
  br i1 %58, label %59, label %80

59:                                               ; preds = %46
  %60 = load i32, i32* %4, align 4
  %61 = add nsw i32 %60, 1
  %62 = sext i32 %61 to i64
  %63 = getelementptr inbounds [100 x %struct.ren], [100 x %struct.ren]* %6, i64 0, i64 %62
  %64 = bitcast %struct.ren* %7 to i8*
  %65 = bitcast %struct.ren* %63 to i8*
  call void @llvm.memcpy.p0i8.p0i8.i64(i8* align 4 %64, i8* align 8 %65, i64 104, i1 false)
  %66 = load i32, i32* %4, align 4
  %67 = add nsw i32 %66, 1
  %68 = sext i32 %67 to i64
  %69 = getelementptr inbounds [100 x %struct.ren], [100 x %struct.ren]* %6, i64 0, i64 %68
  %70 = load i32, i32* %4, align 4
  %71 = sext i32 %70 to i64
  %72 = getelementptr inbounds [100 x %struct.ren], [100 x %struct.ren]* %6, i64 0, i64 %71
  %73 = bitcast %struct.ren* %69 to i8*
  %74 = bitcast %struct.ren* %72 to i8*
  call void @llvm.memcpy.p0i8.p0i8.i64(i8* align 8 %73, i8* align 8 %74, i64 104, i1 false)
  %75 = load i32, i32* %4, align 4
  %76 = sext i32 %75 to i64
  %77 = getelementptr inbounds [100 x %struct.ren], [100 x %struct.ren]* %6, i64 0, i64 %76
  %78 = bitcast %struct.ren* %77 to i8*
  %79 = bitcast %struct.ren* %7 to i8*
  call void @llvm.memcpy.p0i8.p0i8.i64(i8* align 8 %78, i8* align 4 %79, i64 104, i1 false)
  br label %80

80:                                               ; preds = %59, %46
  br label %81

81:                                               ; preds = %80
  %82 = load i32, i32* %4, align 4
  %83 = add nsw i32 %82, 1
  store i32 %83, i32* %4, align 4
  br label %42

84:                                               ; preds = %42
  br label %85

85:                                               ; preds = %84
  %86 = load i32, i32* %3, align 4
  %87 = add nsw i32 %86, -1
  store i32 %87, i32* %3, align 4
  br label %38

88:                                               ; preds = %38
  store i32 0, i32* %3, align 4
  br label %89

89:                                               ; preds = %108, %88
  %90 = load i32, i32* %3, align 4
  %91 = load i32, i32* %2, align 4
  %92 = icmp slt i32 %90, %91
  br i1 %92, label %93, label %111

93:                                               ; preds = %89
  %94 = load i32, i32* %3, align 4
  %95 = sext i32 %94 to i64
  %96 = getelementptr inbounds [100 x %struct.ren], [100 x %struct.ren]* %6, i64 0, i64 %95
  %97 = getelementptr inbounds %struct.ren, %struct.ren* %96, i32 0, i32 1
  %98 = load i32, i32* %97, align 4
  %99 = icmp sge i32 %98, 60
  br i1 %99, label %100, label %107

100:                                              ; preds = %93
  %101 = load i32, i32* %3, align 4
  %102 = sext i32 %101 to i64
  %103 = getelementptr inbounds [100 x %struct.ren], [100 x %struct.ren]* %6, i64 0, i64 %102
  %104 = getelementptr inbounds %struct.ren, %struct.ren* %103, i32 0, i32 0
  %105 = getelementptr inbounds [100 x i8], [100 x i8]* %104, i64 0, i64 0
  %106 = call i32 (i8*, ...) @printf(i8* getelementptr inbounds ([4 x i8], [4 x i8]* @.str.2, i64 0, i64 0), i8* %105)
  br label %107

107:                                              ; preds = %100, %93
  br label %108

108:                                              ; preds = %107
  %109 = load i32, i32* %3, align 4
  %110 = add nsw i32 %109, 1
  store i32 %110, i32* %3, align 4
  br label %89

111:                                              ; preds = %89
  store i32 0, i32* %3, align 4
  br label %112

112:                                              ; preds = %131, %111
  %113 = load i32, i32* %3, align 4
  %114 = load i32, i32* %2, align 4
  %115 = icmp slt i32 %113, %114
  br i1 %115, label %116, label %134

116:                                              ; preds = %112
  %117 = load i32, i32* %3, align 4
  %118 = sext i32 %117 to i64
  %119 = getelementptr inbounds [100 x %struct.ren], [100 x %struct.ren]* %5, i64 0, i64 %118
  %120 = getelementptr inbounds %struct.ren, %struct.ren* %119, i32 0, i32 1
  %121 = load i32, i32* %120, align 4
  %122 = icmp slt i32 %121, 60
  br i1 %122, label %123, label %130

123:                                              ; preds = %116
  %124 = load i32, i32* %3, align 4
  %125 = sext i32 %124 to i64
  %126 = getelementptr inbounds [100 x %struct.ren], [100 x %struct.ren]* %5, i64 0, i64 %125
  %127 = getelementptr inbounds %struct.ren, %struct.ren* %126, i32 0, i32 0
  %128 = getelementptr inbounds [100 x i8], [100 x i8]* %127, i64 0, i64 0
  %129 = call i32 (i8*, ...) @printf(i8* getelementptr inbounds ([4 x i8], [4 x i8]* @.str.2, i64 0, i64 0), i8* %128)
  br label %130

130:                                              ; preds = %123, %116
  br label %131

131:                                              ; preds = %130
  %132 = load i32, i32* %3, align 4
  %133 = add nsw i32 %132, 1
  store i32 %133, i32* %3, align 4
  br label %112

134:                                              ; preds = %112
  ret i32 0
}

declare dso_local i32 @__isoc99_scanf(i8*, ...) #1

; Function Attrs: argmemonly nounwind willreturn
declare void @llvm.memcpy.p0i8.p0i8.i64(i8* noalias nocapture writeonly, i8* noalias nocapture readonly, i64, i1 immarg) #2

declare dso_local i32 @printf(i8*, ...) #1


!llvm.module.flags = !{!0}
!llvm.ident = !{!1}

!0 = !{i32 1, !"wchar_size", i32 4}
!1 = !{!"clang version 10.0.0-4ubuntu1 "}
